(dp0
S'baz'
p1
I01
sS'dt'
p2
cdatetime
datetime
p3
(S'\x07\xe0\n\x01\x00\x00\x00\x00\x00\x00'
p4
tp5
Rp6
sS'foo'
p7
(lp8
I1
aI2
aI3
asS'bar'
p9
(S'Hello'
p10
S'world!'
p11
tp12
sS'distance'
p13
ccopy_reg
_reconstructor
p14
(c__main__
Distance
p15
c__builtin__
object
p16
Ntp17
Rp18
(dp19
S'meter'
p20
F1.78
sbs.